target datalayout = "e-m:e-p270:32:32-p271:32:32-p272:64:64-i64:64-i128:128-f80:128-n8:16:32:64-S128"
target triple = "x86_64-pc-linux-gnu"

%struct.darktable_t = type { %struct.dt_codepath_t, i32, i32, ptr, ptr, ptr, ptr, ptr, ptr, ptr, ptr, ptr, ptr, ptr, ptr, ptr, ptr, ptr, ptr, ptr, ptr, ptr, ptr, ptr, ptr, ptr, ptr, ptr, ptr, ptr, [64 x %struct.dt_pthread_mutex_t], %struct.dt_pthread_mutex_t, %struct.dt_pthread_mutex_t, %struct.dt_pthread_mutex_t, %struct.dt_pthread_mutex_t, %struct.dt_pthread_mutex_t, ptr, ptr, ptr, ptr, ptr, ptr, ptr, ptr, ptr, ptr, ptr, ptr, ptr, %struct.dt_lua_state_t, ptr, double, ptr, i32, [47 x i32], i32, i32, ptr, ptr, %struct.dt_sys_resources_t, %struct.dt_backthumb_t, %struct.dt_gimp_t }
%struct.dt_codepath_t = type { i8, [3 x i8] }
%struct.dt_pthread_mutex_t = type { %union.pthread_mutex_t }
%union.pthread_mutex_t = type { %struct.__pthread_mutex_s }
%struct.__pthread_mutex_s = type { i32, i32, i32, i32, i32, i16, i16, %struct.__pthread_internal_list }
%struct.__pthread_internal_list = type { ptr, ptr }
%struct.dt_lua_state_t = type { i32 }
%struct.dt_sys_resources_t = type { i64, i64, ptr, ptr, i32 }
%struct.dt_backthumb_t = type { double, double, i32, i32, i32, i32 }
%struct.dt_gimp_t = type { i32, ptr, ptr, i32, i32 }
%struct._GdkRGBA = type { double, double, double, double }
%struct.dt_gui_gtk_t = type { ptr, %struct.dt_gui_widgets_t, %struct.dt_gui_scrollbars_t, i32, ptr, i32, [39 x %struct._GdkRGBA], i32, i32, i32, i32, i32, double, double, double, double, ptr, double, double, double, double, i32, i32, [4096 x i8], i32, i32, i32, %struct.dt_pthread_mutex_t }
%struct.dt_gui_widgets_t = type { ptr, ptr, ptr, ptr, i32, i32, i32 }
%struct.dt_gui_scrollbars_t = type { ptr, ptr, i32 }
%struct.dt_control_t = type { i32, ptr, %struct.dt_action_t, %struct.dt_action_t, %struct.dt_action_t, %struct.dt_action_t, %struct.dt_action_t, %struct.dt_action_t, %struct.dt_action_t, %struct.dt_action_t, %struct.dt_action_t, %struct.dt_action_t, %struct.dt_action_t, ptr, ptr, ptr, i32, ptr, i32, i32, ptr, ptr, [256 x i8], i32, double, i32, i32, i64, i32, i32, i32, double, double, i32, i32, i32, i32, i32, i32, [8 x [1000 x i8]], i32, i32, %struct.dt_pthread_mutex_t, i32, i32, [2 x [300 x i8]], i32, i32, %struct.dt_pthread_mutex_t, %struct.dt_pthread_mutex_t, %struct.dt_pthread_mutex_t, double, i32, i32, i32, %struct.dt_pthread_mutex_t, %struct.dt_pthread_mutex_t, %union.pthread_cond_t, i32, ptr, i64, i64, ptr, [5 x ptr], [5 x i64], %struct.dt_pthread_mutex_t, [3 x ptr], [3 x i8], [3 x i64], %struct.anon.0, %struct.anon.2 }
%struct.dt_action_t = type { i32, ptr, ptr, ptr, ptr, ptr }
%union.pthread_cond_t = type { %struct.__pthread_cond_s }
%struct.__pthread_cond_s = type { %union.__atomic_wide_counter, %union.__atomic_wide_counter, [2 x i32], [2 x i32], i32, i32, [2 x i32] }
%union.__atomic_wide_counter = type { i64 }
%struct.anon.0 = type { ptr, i64, i64, double, %struct.dt_pthread_mutex_t, %struct.anon.1 }
%struct.anon.1 = type { ptr, ptr, ptr, ptr, ptr, ptr }
%struct.anon.2 = type { %struct.anon.3 }
%struct.anon.3 = type { ptr, ptr }

@darktable = external global %struct.darktable_t, align 8
@.str.32 = private unnamed_addr constant [5 x i8] c"draw\00", align 1
@.str.36 = private unnamed_addr constant [19 x i8] c"button-press-event\00", align 1
@.str.38 = private unnamed_addr constant [13 x i8] c"scroll-event\00", align 1
@.str.249 = private unnamed_addr constant [32 x i8] c"panel_scrollbars_always_visible\00", align 1
@.str.250 = private unnamed_addr constant [18 x i8] c"plugins_vbox_left\00", align 1
@.str.251 = private unnamed_addr constant [33 x i8] c"right-click to show/hide modules\00", align 1
@.str.252 = private unnamed_addr constant [12 x i8] c"drag-motion\00", align 1
@.str.253 = private unnamed_addr constant [10 x i8] c"drag-drop\00", align 1
@.str.254 = private unnamed_addr constant [11 x i8] c"drag-leave\00", align 1
@.str.255 = private unnamed_addr constant [18 x i8] c"show/hide modules\00", align 1

; Function Attrs: nounwind uwtable
define internal ptr @_ui_init_panel_container_center(ptr noundef %0, i32 noundef %1) #0 {
  %3 = alloca ptr, align 8
  %4 = alloca i32, align 4
  %5 = alloca ptr, align 8
  %6 = alloca ptr, align 8
  %7 = alloca ptr, align 8
  store ptr %0, ptr %3, align 8, !tbaa !6
  store i32 %1, ptr %4, align 4, !tbaa !17
  call void @llvm.lifetime.start.p0(i64 8, ptr %5) #15
  %8 = call ptr @gtk_adjustment_new(double noundef 0.000000e+00, double noundef 0.000000e+00, double noundef 1.000000e+02, double noundef 1.000000e+00, double noundef 1.000000e+01, double noundef 1.000000e+01)
  %9 = call i64 @gtk_adjustment_get_type() #16
  %10 = call ptr @g_type_check_instance_cast(ptr noundef %8, i64 noundef %9)
  %11 = call ptr @gtk_scrolled_window_new(ptr noundef null, ptr noundef %10)
  store ptr %11, ptr %5, align 8, !tbaa !6
  %12 = load ptr, ptr %5, align 8, !tbaa !6
  call void @gtk_widget_set_can_focus(ptr noundef %12, i32 noundef 1)
  %13 = load ptr, ptr %5, align 8, !tbaa !6
  %14 = call i64 @gtk_scrolled_window_get_type() #16
  %15 = call ptr @g_type_check_instance_cast(ptr noundef %13, i64 noundef %14)
  %16 = load i32, ptr %4, align 4, !tbaa !17
  %17 = icmp ne i32 %16, 0
  %18 = select i1 %17, i32 0, i32 2
  call void @gtk_scrolled_window_set_placement(ptr noundef %15, i32 noundef %18)
  %19 = load ptr, ptr %3, align 8, !tbaa !6
  %20 = call i64 @gtk_box_get_type() #16
  %21 = call ptr @g_type_check_instance_cast(ptr noundef %19, i64 noundef %20)
  %22 = load ptr, ptr %5, align 8, !tbaa !6
  call void @gtk_box_pack_start(ptr noundef %21, ptr noundef %22, i32 noundef 1, i32 noundef 1, i32 noundef 0)
  %23 = load ptr, ptr %5, align 8, !tbaa !6
  %24 = call i64 @gtk_scrolled_window_get_type() #16
  %25 = call ptr @g_type_check_instance_cast(ptr noundef %23, i64 noundef %24)
  %26 = call i32 @dt_conf_get_bool(ptr noundef @.str.249)
  %27 = icmp ne i32 %26, 0
  %28 = select i1 %27, i32 0, i32 1
  call void @gtk_scrolled_window_set_policy(ptr noundef %25, i32 noundef 2, i32 noundef %28)
  %29 = load ptr, ptr %5, align 8, !tbaa !6
  %30 = call i64 @gtk_scrolled_window_get_type() #16
  %31 = call ptr @g_type_check_instance_cast(ptr noundef %29, i64 noundef %30)
  call void @gtk_scrolled_window_set_propagate_natural_width(ptr noundef %31, i32 noundef 1)
  %32 = load i32, ptr %4, align 4, !tbaa !17
  %33 = icmp ne i32 %32, 0
  br i1 %33, label %34, label %39

34:                                               ; preds = %2
  %35 = load ptr, ptr getelementptr inbounds nuw (%struct.darktable_t, ptr @darktable, i32 0, i32 14), align 8, !tbaa !24
  %36 = getelementptr inbounds nuw %struct.dt_gui_gtk_t, ptr %35, i32 0, i32 1
  %37 = getelementptr inbounds nuw %struct.dt_gui_widgets_t, ptr %36, i32 0, i32 1
  %38 = load ptr, ptr %37, align 8, !tbaa !134
  br label %44

39:                                               ; preds = %2
  %40 = load ptr, ptr getelementptr inbounds nuw (%struct.darktable_t, ptr @darktable, i32 0, i32 14), align 8, !tbaa !24
  %41 = getelementptr inbounds nuw %struct.dt_gui_gtk_t, ptr %40, i32 0, i32 1
  %42 = getelementptr inbounds nuw %struct.dt_gui_widgets_t, ptr %41, i32 0, i32 0
  %43 = load ptr, ptr %42, align 8, !tbaa !133
  br label %44

44:                                               ; preds = %39, %34
  %45 = phi ptr [ %38, %34 ], [ %43, %39 ]
  %46 = call ptr @g_type_check_instance_cast(ptr noundef %45, i64 noundef 80)
  %47 = load ptr, ptr %5, align 8, !tbaa !6
  %48 = call i64 @g_signal_connect_data(ptr noundef %46, ptr noundef @.str.38, ptr noundef @_borders_scrolled, ptr noundef %47, ptr noundef null, i32 noundef 0)
  %49 = load ptr, ptr %5, align 8, !tbaa !6
  %50 = call ptr @g_type_check_instance_cast(ptr noundef %49, i64 noundef 80)
  %51 = call i64 @g_signal_connect_data(ptr noundef %50, ptr noundef @.str.38, ptr noundef @_ui_init_panel_container_center_scroll_event, ptr noundef null, ptr noundef null, i32 noundef 0)
  %52 = load ptr, ptr %5, align 8, !tbaa !6
  store ptr %52, ptr %3, align 8, !tbaa !6
  %53 = call ptr @gtk_box_new(i32 noundef 1, i32 noundef 0)
  store ptr %53, ptr %5, align 8, !tbaa !6
  %54 = load ptr, ptr %5, align 8, !tbaa !6
  call void @gtk_widget_set_name(ptr noundef %54, ptr noundef @.str.250)
  %55 = load ptr, ptr %3, align 8, !tbaa !6
  %56 = call i64 @gtk_container_get_type() #16
  %57 = call ptr @g_type_check_instance_cast(ptr noundef %55, i64 noundef %56)
  %58 = load ptr, ptr %5, align 8, !tbaa !6
  call void @gtk_container_add(ptr noundef %57, ptr noundef %58)
  %59 = load ptr, ptr %5, align 8, !tbaa !6
  %60 = call i64 @g_signal_connect_data(ptr noundef %59, ptr noundef @.str.32, ptr noundef @_side_panel_draw, ptr noundef null, ptr noundef null, i32 noundef 2)
  call void @llvm.lifetime.start.p0(i64 8, ptr %6) #15
  %61 = call ptr @gtk_event_box_new()
  store ptr %61, ptr %6, align 8, !tbaa !6
  %62 = load ptr, ptr %6, align 8, !tbaa !6
  %63 = call ptr @dcgettext(ptr noundef null, ptr noundef @.str.251, i32 noundef 5) #15
  call void @gtk_widget_set_tooltip_text(ptr noundef %62, ptr noundef %63)
  %64 = load ptr, ptr %5, align 8, !tbaa !6
  %65 = call i64 @gtk_box_get_type() #16
  %66 = call ptr @g_type_check_instance_cast(ptr noundef %64, i64 noundef %65)
  %67 = load ptr, ptr %6, align 8, !tbaa !6
  call void @gtk_box_pack_end(ptr noundef %66, ptr noundef %67, i32 noundef 1, i32 noundef 1, i32 noundef 0)
  %68 = load ptr, ptr %6, align 8, !tbaa !6
  call void @gtk_drag_dest_set(ptr noundef %68, i32 noundef 0, ptr noundef null, i32 noundef 0, i32 noundef 2)
  %69 = load ptr, ptr %6, align 8, !tbaa !6
  %70 = call i64 @g_signal_connect_data(ptr noundef %69, ptr noundef @.str.252, ptr noundef @_on_drag_motion_drop, ptr noundef null, ptr noundef null, i32 noundef 0)
  %71 = load ptr, ptr %6, align 8, !tbaa !6
  %72 = call i64 @g_signal_connect_data(ptr noundef %71, ptr noundef @.str.253, ptr noundef @_on_drag_motion_drop, ptr noundef inttoptr (i64 1 to ptr), ptr noundef null, i32 noundef 0)
  %73 = load ptr, ptr %6, align 8, !tbaa !6
  %74 = call i64 @g_signal_connect_data(ptr noundef %73, ptr noundef @.str.254, ptr noundef @_on_drag_leave, ptr noundef null, ptr noundef null, i32 noundef 0)
  %75 = load ptr, ptr %6, align 8, !tbaa !6
  %76 = call i64 @g_signal_connect_data(ptr noundef %75, ptr noundef @.str.36, ptr noundef @_side_panel_press, ptr noundef null, ptr noundef null, i32 noundef 0)
  %77 = load ptr, ptr %6, align 8, !tbaa !6
  call void @gtk_widget_add_events(ptr noundef %77, i32 noundef 768)
  call void @llvm.lifetime.start.p0(i64 8, ptr %7) #15
  %78 = load ptr, ptr getelementptr inbounds nuw (%struct.darktable_t, ptr @darktable, i32 0, i32 12), align 8, !tbaa !130
  %79 = getelementptr inbounds nuw %struct.dt_control_t, ptr %78, i32 0, i32 2
  %80 = load ptr, ptr %6, align 8, !tbaa !6
  %81 = call ptr @dt_action_define(ptr noundef %79, ptr noundef null, ptr noundef @.str.255, ptr noundef %80, ptr noundef null)
  store ptr %81, ptr %7, align 8, !tbaa !131
  %82 = load ptr, ptr %7, align 8, !tbaa !131
  %83 = call ptr @dt_action_register(ptr noundef %82, ptr noundef null, ptr noundef @_add_remove_modules, i32 noundef 0, i32 noundef 0)
  %84 = load ptr, ptr %5, align 8, !tbaa !6
  call void @llvm.lifetime.end.p0(i64 8, ptr %7) #15
  call void @llvm.lifetime.end.p0(i64 8, ptr %6) #15
  call void @llvm.lifetime.end.p0(i64 8, ptr %5) #15
  ret ptr %84
}