; Function Attrs: nounwind uwtable
define internal fastcc noundef ptr @_ui_init_panel_container_center(ptr noundef %0, i32 noundef range(i32 0, 2) %1) unnamed_addr #0 {
  %3 = tail call ptr @gtk_adjustment_new(double noundef 0.000000e+00, double noundef 0.000000e+00, double noundef 1.000000e+02, double noundef 1.000000e+00, double noundef 1.000000e+01, double noundef 1.000000e+01) #18
  %4 = tail call i64 @gtk_adjustment_get_type() #19
  %5 = tail call ptr @g_type_check_instance_cast(ptr noundef %3, i64 noundef %4) #18
  %6 = tail call ptr @gtk_scrolled_window_new(ptr noundef null, ptr noundef %5) #18
  tail call void @gtk_widget_set_can_focus(ptr noundef %6, i32 noundef 1) #18
  %7 = tail call i64 @gtk_scrolled_window_get_type() #19
  %8 = tail call ptr @g_type_check_instance_cast(ptr noundef %6, i64 noundef %7) #18
  %.not = icmp eq i32 %1, 0
  %9 = select i1 %.not, i32 2, i32 0
  tail call void @gtk_scrolled_window_set_placement(ptr noundef %8, i32 noundef %9) #18
  %10 = tail call i64 @gtk_box_get_type() #19
  %11 = tail call ptr @g_type_check_instance_cast(ptr noundef %0, i64 noundef %10) #18
  tail call void @gtk_box_pack_start(ptr noundef %11, ptr noundef %6, i32 noundef 1, i32 noundef 1, i32 noundef 0) #18
  %12 = tail call ptr @g_type_check_instance_cast(ptr noundef %6, i64 noundef %7) #18
  %13 = tail call i32 @dt_conf_get_bool(ptr noundef nonnull @.str.249) #18
  %.not26 = icmp eq i32 %13, 0
  %14 = zext i1 %.not26 to i32
  tail call void @gtk_scrolled_window_set_policy(ptr noundef %12, i32 noundef 2, i32 noundef %14) #18
  %15 = tail call ptr @g_type_check_instance_cast(ptr noundef %6, i64 noundef %7) #18
  tail call void @gtk_scrolled_window_set_propagate_natural_width(ptr noundef %15, i32 noundef 1) #18
  %16 = load ptr, ptr getelementptr inbounds nuw (i8, ptr @darktable, i64 104), align 8
  %.in.v = select i1 %.not, i64 8, i64 16
  %.in = getelementptr inbounds nuw i8, ptr %16, i64 %.in.v
  %17 = load ptr, ptr %.in, align 8, !tbaa !76
  %18 = tail call ptr @g_type_check_instance_cast(ptr noundef %17, i64 noundef 80) #18
  %19 = tail call i64 @g_signal_connect_data(ptr noundef %18, ptr noundef nonnull @.str.38, ptr noundef nonnull @_borders_scrolled, ptr noundef %6, ptr noundef null, i32 noundef 0) #18
  %20 = tail call ptr @g_type_check_instance_cast(ptr noundef %6, i64 noundef 80) #18
  %21 = tail call i64 @g_signal_connect_data(ptr noundef %20, ptr noundef nonnull @.str.38, ptr noundef nonnull @_ui_init_panel_container_center_scroll_event, ptr noundef null, ptr noundef null, i32 noundef 0) #18
  %22 = tail call ptr @gtk_box_new(i32 noundef 1, i32 noundef 0) #18
  tail call void @gtk_widget_set_name(ptr noundef %22, ptr noundef nonnull @.str.250) #18
  %23 = tail call i64 @gtk_container_get_type() #19
  %24 = tail call ptr @g_type_check_instance_cast(ptr noundef %6, i64 noundef %23) #18
  tail call void @gtk_container_add(ptr noundef %24, ptr noundef %22) #18
  %25 = tail call i64 @g_signal_connect_data(ptr noundef %22, ptr noundef nonnull @.str.32, ptr noundef nonnull @_side_panel_draw, ptr noundef null, ptr noundef null, i32 noundef 2) #18
  %26 = tail call ptr @gtk_event_box_new() #18
  %27 = tail call ptr @dcgettext(ptr noundef null, ptr noundef nonnull @.str.251, i32 noundef 5) #18
  tail call void @gtk_widget_set_tooltip_text(ptr noundef %26, ptr noundef %27) #18
  %28 = tail call ptr @g_type_check_instance_cast(ptr noundef %22, i64 noundef %10) #18
  tail call void @gtk_box_pack_end(ptr noundef %28, ptr noundef %26, i32 noundef 1, i32 noundef 1, i32 noundef 0) #18
  tail call void @gtk_drag_dest_set(ptr noundef %26, i32 noundef 0, ptr noundef null, i32 noundef 0, i32 noundef 2) #18
  %29 = tail call i64 @g_signal_connect_data(ptr noundef %26, ptr noundef nonnull @.str.252, ptr noundef nonnull @_on_drag_motion_drop, ptr noundef null, ptr noundef null, i32 noundef 0) #18
  %30 = tail call i64 @g_signal_connect_data(ptr noundef %26, ptr noundef nonnull @.str.253, ptr noundef nonnull @_on_drag_motion_drop, ptr noundef nonnull inttoptr (i64 1 to ptr), ptr noundef null, i32 noundef 0) #18
  %31 = tail call i64 @g_signal_connect_data(ptr noundef %26, ptr noundef nonnull @.str.254, ptr noundef nonnull @_on_drag_leave, ptr noundef null, ptr noundef null, i32 noundef 0) #18
  %32 = tail call i64 @g_signal_connect_data(ptr noundef %26, ptr noundef nonnull @.str.36, ptr noundef nonnull @_side_panel_press, ptr noundef null, ptr noundef null, i32 noundef 0) #18
  tail call void @gtk_widget_add_events(ptr noundef %26, i32 noundef 768) #18
  %33 = load ptr, ptr getelementptr inbounds nuw (i8, ptr @darktable, i64 88), align 8, !tbaa !120
  %34 = getelementptr inbounds nuw i8, ptr %33, i64 16
  %35 = tail call ptr @dt_action_define(ptr noundef nonnull %34, ptr noundef null, ptr noundef nonnull @.str.255, ptr noundef %26, ptr noundef null) #18
  %36 = tail call ptr @dt_action_register(ptr noundef %35, ptr noundef null, ptr noundef nonnull @_add_remove_modules, i32 noundef 0, i32 noundef 0) #18
  ret ptr %22
}